target datalayout = "e-m:e-p270:32:32-p271:32:32-p272:64:64-i64:64-i128:128-f80:128-n8:16:32:64-S128"
target triple = "x86_64-pc-linux-gnu"

%struct.termios = type { i32, i32, i32, i32, i8, [32 x i8], i32, i32 }
%struct.uv_tty_s = type { ptr, ptr, i32, ptr, %struct.uv__queue, %union.anon, ptr, i32, i64, ptr, ptr, ptr, ptr, %struct.uv__io_s, %struct.uv__queue, %struct.uv__queue, ptr, i32, i32, ptr, %struct.termios, i32 }
%union.anon = type { [4 x ptr] }
%struct.uv__io_s = type { ptr, %struct.uv__queue, %struct.uv__queue, i32, i32, i32 }
%struct.uv__queue = type { ptr, ptr }

@termios_spinlock = internal global i32 0, align 4
@orig_termios_fd = internal global i32 -1, align 4
@orig_termios = internal global %struct.termios zeroinitializer, align 4

; Function Attrs: nounwind uwtable
define hidden i32 @uv__tcsetattr(i32 noundef %0, i32 noundef %1, ptr noundef %2) #0 {
  %4 = alloca i32, align 4
  %5 = alloca i32, align 4
  %6 = alloca i32, align 4
  %7 = alloca ptr, align 8
  %8 = alloca i32, align 4
  %9 = alloca i32, align 4
  store i32 %0, ptr %5, align 4
  store i32 %1, ptr %6, align 4
  store ptr %2, ptr %7, align 8
  call void @llvm.lifetime.start.p0(i64 4, ptr %8) #6
  br label %10

10:                                               ; preds = %22, %3
  %11 = load i32, ptr %5, align 4
  %12 = load i32, ptr %6, align 4
  %13 = load ptr, ptr %7, align 8
  %14 = call i32 @tcsetattr(i32 noundef %11, i32 noundef %12, ptr noundef %13) #6
  store i32 %14, ptr %8, align 4
  br label %15

15:                                               ; preds = %10
  %16 = load i32, ptr %8, align 4
  %17 = icmp eq i32 %16, -1
  br i1 %17, label %18, label %22

18:                                               ; preds = %15
  %19 = call ptr @__errno_location() #7
  %20 = load i32, ptr %19, align 4
  %21 = icmp eq i32 %20, 4
  br label %22

22:                                               ; preds = %18, %15
  %23 = phi i1 [ false, %15 ], [ %21, %18 ]
  br i1 %23, label %10, label %24

24:                                               ; preds = %22
  %25 = load i32, ptr %8, align 4
  %26 = icmp eq i32 %25, -1
  br i1 %26, label %27, label %31

27:                                               ; preds = %24
  %28 = call ptr @__errno_location() #7
  %29 = load i32, ptr %28, align 4
  %30 = sub nsw i32 0, %29
  store i32 %30, ptr %4, align 4
  store i32 1, ptr %9, align 4
  br label %32

31:                                               ; preds = %24
  store i32 0, ptr %4, align 4
  store i32 1, ptr %9, align 4
  br label %32

32:                                               ; preds = %31, %27
  call void @llvm.lifetime.end.p0(i64 4, ptr %8) #6
  %33 = load i32, ptr %4, align 4
  ret i32 %33
}

; Function Attrs: nounwind uwtable
define hidden void @uv__tty_close(ptr noundef %0) #0 {
  %2 = alloca ptr, align 8
  %3 = alloca i32, align 4
  %4 = alloca i32, align 4
  %5 = alloca i32, align 4
  %6 = alloca i8, align 1
  %7 = alloca i32, align 4
  store ptr %0, ptr %2, align 8
  call void @llvm.lifetime.start.p0(i64 4, ptr %3) #6
  call void @llvm.lifetime.start.p0(i64 4, ptr %4) #6
  %8 = load ptr, ptr %2, align 8
  %9 = getelementptr inbounds nuw %struct.uv_tty_s, ptr %8, i32 0, i32 13
  %10 = getelementptr inbounds nuw %struct.uv__io_s, ptr %9, i32 0, i32 5
  %11 = load i32, ptr %10, align 8
  store i32 %11, ptr %4, align 4
  %12 = load i32, ptr %4, align 4
  %13 = icmp eq i32 %12, -1
  br i1 %13, label %14, label %15

14:                                               ; preds = %1
  br label %38

15:                                               ; preds = %1
  br label %16

16:                                               ; preds = %24, %15
  store i32 0, ptr %3, align 4
  br label %17

17:                                               ; preds = %16
  store i32 1, ptr %5, align 4
  %18 = load i32, ptr %3, align 4
  %19 = load i32, ptr %5, align 4
  %20 = cmpxchg ptr @termios_spinlock, i32 %18, i32 %19 seq_cst seq_cst, align 4
  %21 = extractvalue { i32, i1 } %20, 0
  %22 = extractvalue { i32, i1 } %20, 1
  br i1 %22, label %24, label %23

23:                                               ; preds = %17
  store i32 %21, ptr %3, align 4
  br label %24

24:                                               ; preds = %23, %17
  %25 = zext i1 %22 to i8
  store i8 %25, ptr %6, align 1
  %26 = load i8, ptr %6, align 1, !range !4, !noundef !5
  %27 = trunc i8 %26 to i1
  %28 = xor i1 %27, true
  br i1 %28, label %16, label %29

29:                                               ; preds = %24
  %30 = load i32, ptr %4, align 4
  %31 = load i32, ptr @orig_termios_fd, align 4
  %32 = icmp eq i32 %30, %31
  br i1 %32, label %33, label %36

33:                                               ; preds = %29
  %34 = load i32, ptr %4, align 4
  %35 = call i32 @uv__tcsetattr(i32 noundef %34, i32 noundef 0, ptr noundef @orig_termios)
  store i32 -1, ptr @orig_termios_fd, align 4
  br label %36

36:                                               ; preds = %33, %29
  store i32 0, ptr %7, align 4
  %37 = load i32, ptr %7, align 4
  store atomic i32 %37, ptr @termios_spinlock seq_cst, align 4
  br label %38

38:                                               ; preds = %36, %14
  %39 = load ptr, ptr %2, align 8
  call void @uv__stream_close(ptr noundef %39)
  call void @llvm.lifetime.end.p0(i64 4, ptr %4) #6
  call void @llvm.lifetime.end.p0(i64 4, ptr %3) #6
  ret void
}