; Function Attrs: nounwind uwtable
define hidden void @uv__tty_close(ptr noundef %0) local_unnamed_addr #0 {
  %2 = getelementptr inbounds nuw i8, ptr %0, i64 184
  %3 = load i32, ptr %2, align 8
  %4 = icmp eq i32 %3, -1
  br i1 %4, label %17, label %.preheader8

.preheader8:                                      ; preds = %1, %.preheader8
  %5 = cmpxchg ptr @termios_spinlock, i32 0, i32 1 seq_cst seq_cst, align 4
  %6 = extractvalue { i32, i1 } %5, 1
  br i1 %6, label %7, label %.preheader8

7:                                                ; preds = %.preheader8
  %8 = load i32, ptr @orig_termios_fd, align 4
  %9 = icmp eq i32 %3, %8
  br i1 %9, label %.preheader, label %16

.preheader:                                       ; preds = %7, %12
  %10 = tail call i32 @tcsetattr(i32 noundef %3, i32 noundef 0, ptr noundef nonnull @orig_termios) #8
  %11 = icmp eq i32 %10, -1
  br i1 %11, label %12, label %uv__tcsetattr.exit

12:                                               ; preds = %.preheader
  %13 = tail call ptr @__errno_location() #9
  %14 = load i32, ptr %13, align 4
  %15 = icmp eq i32 %14, 4
  br i1 %15, label %.preheader, label %uv__tcsetattr.exit

uv__tcsetattr.exit:                               ; preds = %12, %.preheader
  store i32 -1, ptr @orig_termios_fd, align 4
  br label %16

16:                                               ; preds = %uv__tcsetattr.exit, %7
  store atomic i32 0, ptr @termios_spinlock seq_cst, align 4
  br label %17

17:                                               ; preds = %1, %16
  tail call void @uv__stream_close(ptr noundef %0) #8
  ret void
}